; Function Attrs: mustprogress nofree norecurse nosync nounwind memory(argmem: readwrite) uwtable
define noundef i64 @_ZN5faiss21fvec_L2sqr_ny_nearestEPfPKfS2_mm(ptr noundef captures(none) %0, ptr noundef readonly captures(none) %1, ptr noundef readonly captures(none) %2, i64 noundef %3, i64 noundef %4) local_unnamed_addr #2 {
  %.not.i.i.i = icmp eq i64 %4, 0
  br i1 %.not.i.i.i, label %_ZN5faiss25fvec_L2sqr_ny_nearest_refEPfPKfS2_mm.exit, label %.lr.ph.i.i.i

.lr.ph.i.i.i:                                     ; preds = %5
  %.not.i.i.i.i = icmp eq i64 %3, 0
  br i1 %.not.i.i.i.i, label %_ZN5faiss10fvec_L2sqrEPKfS1_m.exit.us.preheader.i.i.i, label %.lr.ph.i.preheader.i.i.i.preheader

.lr.ph.i.preheader.i.i.i.preheader:               ; preds = %.lr.ph.i.i.i
  %min.iters.check = icmp ult i64 %3, 8
  %n.vec = and i64 %3, -8
  %cmp.n = icmp eq i64 %3, %n.vec
  br label %.lr.ph.i.preheader.i.i.i

_ZN5faiss10fvec_L2sqrEPKfS1_m.exit.us.preheader.i.i.i: ; preds = %.lr.ph.i.i.i
  %6 = shl nuw i64 %4, 2
  tail call void @llvm.memset.p0.i64(ptr align 4 %0, i8 0, i64 %6, i1 false), !tbaa !4
  br label %.lr.ph.i.preheader

.lr.ph.i.preheader.i.i.i:                         ; preds = %.lr.ph.i.preheader.i.i.i.preheader, %_ZN5faiss10fvec_L2sqrEPKfS1_m.exit.loopexit.i.i.i
  %.011.i.i.i = phi i64 [ %29, %_ZN5faiss10fvec_L2sqrEPKfS1_m.exit.loopexit.i.i.i ], [ 0, %.lr.ph.i.preheader.i.i.i.preheader ]
  %.0910.i.i.i = phi ptr [ %28, %_ZN5faiss10fvec_L2sqrEPKfS1_m.exit.loopexit.i.i.i ], [ %2, %.lr.ph.i.preheader.i.i.i.preheader ]
  br i1 %min.iters.check, label %.lr.ph.i.i.i.i.preheader, label %vector.body

vector.body:                                      ; preds = %.lr.ph.i.preheader.i.i.i, %vector.body
  %index = phi i64 [ %index.next, %vector.body ], [ 0, %.lr.ph.i.preheader.i.i.i ]
  %vec.phi = phi <4 x float> [ %15, %vector.body ], [ zeroinitializer, %.lr.ph.i.preheader.i.i.i ]
  %vec.phi4 = phi <4 x float> [ %16, %vector.body ], [ zeroinitializer, %.lr.ph.i.preheader.i.i.i ]
  %7 = getelementptr inbounds nuw float, ptr %1, i64 %index
  %8 = getelementptr inbounds nuw i8, ptr %7, i64 16
  %wide.load = load <4 x float>, ptr %7, align 4, !tbaa !4
  %wide.load5 = load <4 x float>, ptr %8, align 4, !tbaa !4
  %9 = getelementptr inbounds nuw float, ptr %.0910.i.i.i, i64 %index
  %10 = getelementptr inbounds nuw i8, ptr %9, i64 16
  %wide.load6 = load <4 x float>, ptr %9, align 4, !tbaa !4
  %wide.load7 = load <4 x float>, ptr %10, align 4, !tbaa !4
  %11 = fsub fast <4 x float> %wide.load, %wide.load6
  %12 = fsub fast <4 x float> %wide.load5, %wide.load7
  %13 = fmul fast <4 x float> %11, %11
  %14 = fmul fast <4 x float> %12, %12
  %15 = fadd fast <4 x float> %13, %vec.phi
  %16 = fadd fast <4 x float> %14, %vec.phi4
  %index.next = add nuw i64 %index, 8
  %17 = icmp eq i64 %index.next, %n.vec
  br i1 %17, label %middle.block, label %vector.body, !llvm.loop !38

middle.block:                                     ; preds = %vector.body
  %bin.rdx = fadd fast <4 x float> %16, %15
  %18 = tail call fast float @llvm.vector.reduce.fadd.v4f32(float 0.000000e+00, <4 x float> %bin.rdx)
  br i1 %cmp.n, label %_ZN5faiss10fvec_L2sqrEPKfS1_m.exit.loopexit.i.i.i, label %.lr.ph.i.i.i.i.preheader

.lr.ph.i.i.i.i.preheader:                         ; preds = %.lr.ph.i.preheader.i.i.i, %middle.block
  %.012.i.i.i.i.ph = phi i64 [ 0, %.lr.ph.i.preheader.i.i.i ], [ %n.vec, %middle.block ]
  %.01011.i.i.i.i.ph = phi float [ 0.000000e+00, %.lr.ph.i.preheader.i.i.i ], [ %18, %middle.block ]
  br label %.lr.ph.i.i.i.i

.lr.ph.i.i.i.i:                                   ; preds = %.lr.ph.i.i.i.i.preheader, %.lr.ph.i.i.i.i
  %.012.i.i.i.i = phi i64 [ %26, %.lr.ph.i.i.i.i ], [ %.012.i.i.i.i.ph, %.lr.ph.i.i.i.i.preheader ]
  %.01011.i.i.i.i = phi float [ %25, %.lr.ph.i.i.i.i ], [ %.01011.i.i.i.i.ph, %.lr.ph.i.i.i.i.preheader ]
  %19 = getelementptr inbounds nuw float, ptr %1, i64 %.012.i.i.i.i
  %20 = load float, ptr %19, align 4, !tbaa !4
  %21 = getelementptr inbounds nuw float, ptr %.0910.i.i.i, i64 %.012.i.i.i.i
  %22 = load float, ptr %21, align 4, !tbaa !4
  %23 = fsub fast float %20, %22
  %24 = fmul fast float %23, %23
  %25 = fadd fast float %24, %.01011.i.i.i.i
  %26 = add nuw i64 %.012.i.i.i.i, 1
  %exitcond.not.i.i.i.i = icmp eq i64 %26, %3
  br i1 %exitcond.not.i.i.i.i, label %_ZN5faiss10fvec_L2sqrEPKfS1_m.exit.loopexit.i.i.i, label %.lr.ph.i.i.i.i, !llvm.loop !39

_ZN5faiss10fvec_L2sqrEPKfS1_m.exit.loopexit.i.i.i: ; preds = %.lr.ph.i.i.i.i, %middle.block
  %.lcssa = phi float [ %18, %middle.block ], [ %25, %.lr.ph.i.i.i.i ]
  %27 = getelementptr inbounds nuw float, ptr %0, i64 %.011.i.i.i
  store float %.lcssa, ptr %27, align 4, !tbaa !4
  %28 = getelementptr inbounds nuw float, ptr %.0910.i.i.i, i64 %3
  %29 = add nuw i64 %.011.i.i.i, 1
  %exitcond.not.i.i.i = icmp eq i64 %29, %4
  br i1 %exitcond.not.i.i.i, label %.lr.ph.i.preheader, label %.lr.ph.i.preheader.i.i.i, !llvm.loop !15

.lr.ph.i.preheader:                               ; preds = %_ZN5faiss10fvec_L2sqrEPKfS1_m.exit.loopexit.i.i.i, %_ZN5faiss10fvec_L2sqrEPKfS1_m.exit.us.preheader.i.i.i
  br label %.lr.ph.i

.lr.ph.i:                                         ; preds = %.lr.ph.i.preheader, %.lr.ph.i
  %.020.i = phi i64 [ %33, %.lr.ph.i ], [ 0, %.lr.ph.i.preheader ]
  %.01419.i = phi float [ %.1.i, %.lr.ph.i ], [ 0x7FF0000000000000, %.lr.ph.i.preheader ]
  %.01518.i = phi i64 [ %.116.i, %.lr.ph.i ], [ 0, %.lr.ph.i.preheader ]
  %30 = getelementptr inbounds nuw float, ptr %0, i64 %.020.i
  %31 = load float, ptr %30, align 4, !tbaa !4
  %32 = fcmp olt float %31, %.01419.i
  %.116.i = select i1 %32, i64 %.020.i, i64 %.01518.i
  %.1.i = select i1 %32, float %31, float %.01419.i
  %33 = add nuw i64 %.020.i, 1
  %exitcond.not.i = icmp eq i64 %33, %4
  br i1 %exitcond.not.i, label %_ZN5faiss25fvec_L2sqr_ny_nearest_refEPfPKfS2_mm.exit, label %.lr.ph.i, !llvm.loop !23

_ZN5faiss25fvec_L2sqr_ny_nearest_refEPfPKfS2_mm.exit: ; preds = %.lr.ph.i, %5
  %.015.lcssa.i = phi i64 [ 0, %5 ], [ %.116.i, %.lr.ph.i ]
  ret i64 %.015.lcssa.i
}